; Function Attrs: nounwind uwtable
define ptr @l_Lean_Meta_Grind_Arith_CommRing_EqCnstr_denoteExpr___rarg(ptr noundef %0, ptr noundef %1, ptr noundef %2) #0 {
  %4 = getelementptr inbounds nuw i8, ptr %0, i64 16
  %5 = load ptr, ptr %4, align 8, !tbaa !11
  %6 = ptrtoint ptr %5 to i64
  %7 = and i64 %6, 1
  %.not = icmp eq i64 %7, 0
  br i1 %.not, label %8, label %lean_inc.exit24

8:                                                ; preds = %3
  %.val.i = load i32, ptr %5, align 4, !tbaa !6
  %9 = icmp sgt i32 %.val.i, 0
  br i1 %9, label %10, label %12, !prof !5

10:                                               ; preds = %8
  %11 = add nuw i32 %.val.i, 1
  store i32 %11, ptr %5, align 4, !tbaa !6
  br label %lean_inc.exit24

12:                                               ; preds = %8
  %.not.i25 = icmp eq i32 %.val.i, 0
  br i1 %.not.i25, label %lean_inc.exit24, label %13

13:                                               ; preds = %12
  tail call void @lean_inc_ref_cold(ptr noundef nonnull %5) #3
  br label %lean_inc.exit24

lean_inc.exit24:                                  ; preds = %13, %12, %10, %3
  %14 = getelementptr inbounds nuw i8, ptr %2, i64 8
  %15 = load ptr, ptr %14, align 8, !tbaa !11
  %16 = ptrtoint ptr %15 to i64
  %17 = and i64 %16, 1
  %.not38 = icmp eq i64 %17, 0
  br i1 %.not38, label %18, label %lean_inc.exit23

18:                                               ; preds = %lean_inc.exit24
  %.val.i26 = load i32, ptr %15, align 4, !tbaa !6
  %19 = icmp sgt i32 %.val.i26, 0
  br i1 %19, label %20, label %22, !prof !5

20:                                               ; preds = %18
  %21 = add nuw i32 %.val.i26, 1
  store i32 %21, ptr %15, align 4, !tbaa !6
  br label %lean_inc.exit23

22:                                               ; preds = %18
  %.not.i27 = icmp eq i32 %.val.i26, 0
  br i1 %.not.i27, label %lean_inc.exit23, label %23

23:                                               ; preds = %22
  tail call void @lean_inc_ref_cold(ptr noundef nonnull %15) #3
  br label %lean_inc.exit23

lean_inc.exit23:                                  ; preds = %23, %22, %20, %lean_inc.exit24
  %24 = ptrtoint ptr %2 to i64
  %25 = and i64 %24, 1
  %.not39 = icmp eq i64 %25, 0
  br i1 %.not39, label %26, label %lean_dec.exit

26:                                               ; preds = %lean_inc.exit23
  %27 = load i32, ptr %2, align 4, !tbaa !6
  %28 = icmp sgt i32 %27, 1
  br i1 %28, label %29, label %31, !prof !5

29:                                               ; preds = %26
  %30 = add nsw i32 %27, -1
  store i32 %30, ptr %2, align 4, !tbaa !6
  br label %lean_dec.exit

31:                                               ; preds = %26
  %.not.i = icmp eq i32 %27, 0
  br i1 %.not.i, label %lean_dec.exit, label %32

32:                                               ; preds = %31
  tail call void @lean_dec_ref_cold(ptr noundef nonnull %2) #3
  br label %lean_dec.exit

lean_dec.exit:                                    ; preds = %32, %31, %29, %lean_inc.exit23
  %33 = ptrtoint ptr %1 to i64
  %34 = and i64 %33, 1
  %.not40 = icmp eq i64 %34, 0
  br i1 %.not40, label %35, label %lean_inc.exit22

35:                                               ; preds = %lean_dec.exit
  %.val.i29 = load i32, ptr %1, align 4, !tbaa !6
  %36 = icmp sgt i32 %.val.i29, 0
  br i1 %36, label %37, label %39, !prof !5

37:                                               ; preds = %35
  %38 = add nuw i32 %.val.i29, 1
  store i32 %38, ptr %1, align 4, !tbaa !6
  br label %lean_inc.exit22

39:                                               ; preds = %35
  %.not.i30 = icmp eq i32 %.val.i29, 0
  br i1 %.not.i30, label %lean_inc.exit22, label %40

40:                                               ; preds = %39
  tail call void @lean_inc_ref_cold(ptr noundef nonnull %1) #3
  br label %lean_inc.exit22

lean_inc.exit22:                                  ; preds = %40, %39, %37, %lean_dec.exit
  %41 = ptrtoint ptr %0 to i64
  %42 = and i64 %41, 1
  %.not41 = icmp eq i64 %42, 0
  br i1 %.not41, label %43, label %lean_inc.exit21

43:                                               ; preds = %lean_inc.exit22
  %.val.i32 = load i32, ptr %0, align 4, !tbaa !6
  %44 = icmp sgt i32 %.val.i32, 0
  br i1 %44, label %45, label %47, !prof !5

45:                                               ; preds = %43
  %46 = add nuw i32 %.val.i32, 1
  store i32 %46, ptr %0, align 4, !tbaa !6
  br label %lean_inc.exit21

47:                                               ; preds = %43
  %.not.i33 = icmp eq i32 %.val.i32, 0
  br i1 %.not.i33, label %lean_inc.exit21, label %48

48:                                               ; preds = %47
  tail call void @lean_inc_ref_cold(ptr noundef nonnull %0) #3
  br label %lean_inc.exit21

lean_inc.exit21:                                  ; preds = %48, %47, %45, %lean_inc.exit22
  %49 = tail call ptr @l_Lean_Grind_CommRing_Poly_denoteExpr___rarg(ptr noundef nonnull %0, ptr noundef %1, ptr noundef %15)
  br i1 %.not, label %50, label %lean_inc.exit

50:                                               ; preds = %lean_inc.exit21
  %.val.i35 = load i32, ptr %5, align 4, !tbaa !6
  %51 = icmp sgt i32 %.val.i35, 0
  br i1 %51, label %52, label %54, !prof !5

52:                                               ; preds = %50
  %53 = add nuw i32 %.val.i35, 1
  store i32 %53, ptr %5, align 4, !tbaa !6
  br label %lean_inc.exit

54:                                               ; preds = %50
  %.not.i36 = icmp eq i32 %.val.i35, 0
  br i1 %.not.i36, label %lean_inc.exit, label %55

55:                                               ; preds = %54
  tail call void @lean_inc_ref_cold(ptr noundef nonnull %5) #3
  br label %lean_inc.exit

lean_inc.exit:                                    ; preds = %55, %54, %52, %lean_inc.exit21
  tail call void @lean_inc_heartbeat() #3
  %56 = tail call noalias ptr @mi_malloc_small(i64 noundef 48) #3
  %57 = icmp eq ptr %56, null
  br i1 %57, label %58, label %lean_alloc_closure.exit

58:                                               ; preds = %lean_inc.exit
  tail call void @lean_internal_panic_out_of_memory() #4
  unreachable

lean_alloc_closure.exit:                          ; preds = %lean_inc.exit
  %59 = getelementptr inbounds nuw i8, ptr %56, i64 4
  store i32 1, ptr %56, align 4, !tbaa !6
  store i32 -184549328, ptr %59, align 4
  %60 = getelementptr inbounds nuw i8, ptr %56, i64 8
  store ptr @l_Lean_Meta_Grind_Arith_CommRing_EqCnstr_denoteExpr___rarg___lambda__1, ptr %60, align 8, !tbaa !11
  %61 = getelementptr inbounds nuw i8, ptr %56, i64 16
  store i16 4, ptr %61, align 8, !tbaa !13
  %62 = getelementptr inbounds nuw i8, ptr %56, i64 18
  store i16 3, ptr %62, align 2, !tbaa !13
  %63 = getelementptr inbounds nuw i8, ptr %56, i64 24
  store ptr %0, ptr %63, align 8, !tbaa !11
  %64 = getelementptr inbounds nuw i8, ptr %56, i64 32
  store ptr %1, ptr %64, align 8, !tbaa !11
  %65 = getelementptr inbounds nuw i8, ptr %56, i64 40
  store ptr %5, ptr %65, align 8, !tbaa !11
  %66 = tail call ptr @lean_apply_4(ptr noundef %5, ptr noundef nonnull inttoptr (i64 1 to ptr), ptr noundef nonnull inttoptr (i64 1 to ptr), ptr noundef %49, ptr noundef nonnull %56) #3
  ret ptr %66
}